; Function Attrs: nounwind uwtable
define ptr @Gia_ManCofStructure(ptr noundef %0) local_unnamed_addr #0 {
  %2 = alloca ptr, align 8
  store ptr null, ptr %2, align 8
  %3 = tail call ptr @Gia_ManFindSharedInputs(ptr noundef %0)
  %.not = icmp eq ptr %3, null
  br i1 %.not, label %Vec_WecFreeP.exit.thread, label %4

4:                                                ; preds = %1
  %5 = call ptr @Gia_ManFindCofs(ptr noundef %0, ptr noundef nonnull %3, ptr noundef nonnull %2)
  %.not6 = icmp eq ptr %5, null
  br i1 %.not6, label %Vec_WecFreeP.exit.thread, label %6

6:                                                ; preds = %4
  %7 = call ptr @Gia_ManFindEquivClasses(ptr noundef nonnull %5)
  %.not7 = icmp eq ptr %7, null
  br i1 %.not7, label %.thread24.thread35, label %8

.thread24.thread35:                               ; preds = %6
  call void @Gia_ManStopP(ptr noundef nonnull %2) #26
  br label %31

8:                                                ; preds = %6
  %9 = getelementptr inbounds nuw i8, ptr %7, i64 4
  %10 = load i32, ptr %9, align 4
  %11 = icmp eq i32 %10, 0
  br i1 %11, label %Vec_IntFindMax.exit, label %12

12:                                               ; preds = %8
  %13 = getelementptr inbounds nuw i8, ptr %7, i64 8
  %14 = load ptr, ptr %13, align 8
  %15 = load i32, ptr %14, align 4
  %16 = icmp sgt i32 %10, 1
  br i1 %16, label %.lr.ph.preheader.i, label %Vec_IntFindMax.exit

.lr.ph.preheader.i:                               ; preds = %12
  %wide.trip.count.i = zext nneg i32 %10 to i64
  br label %.lr.ph.i

.lr.ph.i:                                         ; preds = %.lr.ph.i, %.lr.ph.preheader.i
  %indvars.iv.i = phi i64 [ 1, %.lr.ph.preheader.i ], [ %indvars.iv.next.i, %.lr.ph.i ]
  %.015.i = phi i32 [ %15, %.lr.ph.preheader.i ], [ %spec.select.i, %.lr.ph.i ]
  %17 = getelementptr inbounds nuw i32, ptr %14, i64 %indvars.iv.i
  %18 = load i32, ptr %17, align 4
  %spec.select.i = call i32 @llvm.smax.i32(i32 %.015.i, i32 %18)
  %indvars.iv.next.i = add nuw nsw i64 %indvars.iv.i, 1
  %exitcond.not.i = icmp eq i64 %indvars.iv.next.i, %wide.trip.count.i
  br i1 %exitcond.not.i, label %Vec_IntFindMax.exit, label %.lr.ph.i, !llvm.loop !24

Vec_IntFindMax.exit:                              ; preds = %.lr.ph.i, %8, %12
  %.012.i = phi i32 [ 0, %8 ], [ %15, %12 ], [ %spec.select.i, %.lr.ph.i ]
  %19 = add nsw i32 %.012.i, 1
  %20 = icmp ult i32 %19, 2
  %21 = call range(i32 0, 33) i32 @llvm.ctlz.i32(i32 %.012.i, i1 true)
  %22 = sub nuw nsw i32 32, %21
  %.09.i = select i1 %20, i32 %19, i32 %22
  %23 = getelementptr i8, ptr %3, i64 4
  %.val = load i32, ptr %23, align 4
  %24 = icmp slt i32 %.09.i, %.val
  br i1 %24, label %25, label %.thread24

Vec_WecFreeP.exit.thread:                         ; preds = %1, %4
  call void @Gia_ManStopP(ptr noundef nonnull %2) #26
  br label %Vec_IntFreeP.exit

.thread24:                                        ; preds = %Vec_IntFindMax.exit
  call void @Gia_ManStopP(ptr noundef nonnull %2) #26
  br label %31

25:                                               ; preds = %Vec_IntFindMax.exit
  %26 = load ptr, ptr %2, align 8
  %27 = getelementptr i8, ptr %0, i64 72
  %.val8 = load ptr, ptr %27, align 8
  %28 = getelementptr i8, ptr %.val8, i64 4
  %.val8.val = load i32, ptr %28, align 4
  call void @Gia_ManFindDerive(ptr noundef %26, i32 noundef %.val8.val, ptr noundef nonnull %3, ptr noundef nonnull %5, ptr noundef nonnull %7)
  %29 = load ptr, ptr %2, align 8
  %30 = call ptr @Gia_ManCleanup(ptr noundef %29) #26
  store ptr %30, ptr %2, align 8
  call void @Gia_ManStop(ptr noundef %29) #26
  br label %31

31:                                               ; preds = %25, %.thread24, %.thread24.thread35
  %32 = load i32, ptr %5, align 8
  %33 = icmp sgt i32 %32, 0
  %34 = getelementptr inbounds nuw i8, ptr %5, i64 8
  %35 = load ptr, ptr %34, align 8
  br i1 %33, label %.lr.ph.i.i.i, label %._crit_edge.i.i.i

.lr.ph.i.i.i:                                     ; preds = %31
  %36 = zext nneg i32 %32 to i64
  br label %37

37:                                               ; preds = %41, %.lr.ph.i.i.i
  %indvars.iv.i.i.i = phi i64 [ 0, %.lr.ph.i.i.i ], [ %indvars.iv.next.i.i.i, %41 ]
  %38 = getelementptr inbounds nuw %struct.Vec_Int_t_, ptr %35, i64 %indvars.iv.i.i.i, i32 2
  %39 = load ptr, ptr %38, align 8
  %.not15.i.i.i = icmp eq ptr %39, null
  br i1 %.not15.i.i.i, label %41, label %40

40:                                               ; preds = %37
  call void @free(ptr noundef nonnull %39) #26
  store ptr null, ptr %38, align 8
  br label %41

41:                                               ; preds = %40, %37
  %indvars.iv.next.i.i.i = add nuw nsw i64 %indvars.iv.i.i.i, 1
  %42 = icmp samesign ult i64 %indvars.iv.next.i.i.i, %36
  br i1 %42, label %37, label %._crit_edge.i.i.i.thread, !llvm.loop !19

._crit_edge.i.i.i:                                ; preds = %31
  %.not.i.i.i = icmp eq ptr %35, null
  br i1 %.not.i.i.i, label %Vec_WecFree.exit.i, label %._crit_edge.i.i.i.thread

._crit_edge.i.i.i.thread:                         ; preds = %41, %._crit_edge.i.i.i
  call void @free(ptr noundef nonnull %35) #26
  br label %Vec_WecFree.exit.i

Vec_WecFree.exit.i:                               ; preds = %._crit_edge.i.i.i.thread, %._crit_edge.i.i.i
  call void @free(ptr noundef nonnull %5) #26
  br i1 %.not7, label %Vec_IntFreeP.exit, label %43

43:                                               ; preds = %Vec_WecFree.exit.i
  %44 = getelementptr inbounds nuw i8, ptr %7, i64 8
  %45 = load ptr, ptr %44, align 8
  %.not.i = icmp eq ptr %45, null
  br i1 %.not.i, label %.thread.i, label %46

46:                                               ; preds = %43
  call void @free(ptr noundef nonnull %45) #26
  br label %.thread.i

.thread.i:                                        ; preds = %46, %43
  call void @free(ptr noundef nonnull %7) #26
  br label %Vec_IntFreeP.exit

Vec_IntFreeP.exit:                                ; preds = %Vec_WecFreeP.exit.thread, %Vec_WecFree.exit.i, %.thread.i
  br i1 %.not, label %Vec_IntFreeP.exit13, label %Vec_IntFreeP.exit.thread

Vec_IntFreeP.exit.thread:                         ; preds = %Vec_IntFreeP.exit
  %47 = getelementptr inbounds nuw i8, ptr %3, i64 8
  %48 = load ptr, ptr %47, align 8
  %.not.i9 = icmp eq ptr %48, null
  br i1 %.not.i9, label %.thread.i12, label %49

49:                                               ; preds = %Vec_IntFreeP.exit.thread
  call void @free(ptr noundef nonnull %48) #26
  br label %.thread.i12

.thread.i12:                                      ; preds = %49, %Vec_IntFreeP.exit.thread
  call void @free(ptr noundef nonnull %3) #26
  br label %Vec_IntFreeP.exit13

Vec_IntFreeP.exit13:                              ; preds = %Vec_IntFreeP.exit, %.thread.i12
  %50 = load ptr, ptr %2, align 8
  ret ptr %50
}